; Function Attrs: nounwind uwtable
define hidden void @phpdbg_print_opcodes_function(ptr noundef %0, i64 noundef %1) local_unnamed_addr #0 {
  %3 = load ptr, ptr getelementptr inbounds nuw (i8, ptr @executor_globals, i64 456), align 8, !tbaa !111
  %4 = tail call ptr @zend_hash_str_find(ptr noundef %3, ptr noundef %0, i64 noundef %1) #11
  %.not.i = icmp eq ptr %4, null
  br i1 %.not.i, label %5, label %8

5:                                                ; preds = %2
  %6 = load i32, ptr getelementptr inbounds nuw (i8, ptr @phpdbg_globals, i64 1508), align 4, !tbaa !40
  %7 = tail call i32 (i32, i32, ptr, ...) @phpdbg_print(i32 noundef 1, i32 noundef %6, ptr noundef nonnull @.str.35, ptr noundef %0) #11
  br label %10

8:                                                ; preds = %2
  %9 = load ptr, ptr %4, align 8, !tbaa !61, !nonnull !58, !noundef !58
  tail call fastcc void @phpdbg_print_function_helper(ptr noundef nonnull %9)
  br label %10

10:                                               ; preds = %8, %5
  ret void
}